target datalayout = "e-m:e-p270:32:32-p271:32:32-p272:64:64-i64:64-i128:128-f80:128-n8:16:32:64-S128"
target triple = "x86_64-pc-linux-gnu"

%struct.lua_State = type { ptr, i8, i8, i8, i8, i16, %union.StkIdRel, ptr, ptr, %union.StkIdRel, %union.StkIdRel, ptr, %union.StkIdRel, ptr, ptr, ptr, %struct.CallInfo, ptr, i64, i32, i32, i32, i32, i32, %struct.anon.3 }
%union.StkIdRel = type { ptr }
%struct.CallInfo = type { %union.StkIdRel, %union.StkIdRel, ptr, ptr, %union.anon, %union.anon.2, i32 }
%union.anon = type { %struct.anon.1 }
%struct.anon.1 = type { ptr, i64, i64 }
%union.anon.2 = type { i32 }
%struct.anon.3 = type { i32, i32 }
%struct.TValue = type { %union.Value, i8 }
%union.Value = type { ptr }
%union.StackValue = type { %struct.TValue }

; Function Attrs: inlinehint nounwind uwtable
define internal void @genmoveresults(ptr noundef %0, ptr noundef %1, i32 noundef %2, i32 noundef %3) #9 {
  %5 = alloca ptr, align 8
  %6 = alloca ptr, align 8
  %7 = alloca i32, align 4
  %8 = alloca i32, align 4
  %9 = alloca ptr, align 8
  %10 = alloca i32, align 4
  %11 = alloca ptr, align 8
  %12 = alloca ptr, align 8
  store ptr %0, ptr %5, align 8, !tbaa !4
  store ptr %1, ptr %6, align 8, !tbaa !11
  store i32 %2, ptr %7, align 4, !tbaa !9
  store i32 %3, ptr %8, align 4, !tbaa !9
  call void @llvm.lifetime.start.p0(i64 8, ptr %9) #11
  %13 = load ptr, ptr %5, align 8, !tbaa !4
  %14 = getelementptr inbounds nuw %struct.lua_State, ptr %13, i32 0, i32 6
  %15 = load ptr, ptr %14, align 8, !tbaa !34
  %16 = load i32, ptr %7, align 4, !tbaa !9
  %17 = sext i32 %16 to i64
  %18 = sub i64 0, %17
  %19 = getelementptr inbounds %union.StackValue, ptr %15, i64 %18
  store ptr %19, ptr %9, align 8, !tbaa !11
  call void @llvm.lifetime.start.p0(i64 4, ptr %10) #11
  %20 = load i32, ptr %7, align 4, !tbaa !9
  %21 = load i32, ptr %8, align 4, !tbaa !9
  %22 = icmp sgt i32 %20, %21
  br i1 %22, label %23, label %25

23:                                               ; preds = %4
  %24 = load i32, ptr %8, align 4, !tbaa !9
  store i32 %24, ptr %7, align 4, !tbaa !9
  br label %25

25:                                               ; preds = %23, %4
  store i32 0, ptr %10, align 4, !tbaa !9
  br label %26

26:                                               ; preds = %48, %25
  %27 = load i32, ptr %10, align 4, !tbaa !9
  %28 = load i32, ptr %7, align 4, !tbaa !9
  %29 = icmp slt i32 %27, %28
  br i1 %29, label %30, label %51

30:                                               ; preds = %26
  call void @llvm.lifetime.start.p0(i64 8, ptr %11) #11
  %31 = load ptr, ptr %6, align 8, !tbaa !11
  %32 = load i32, ptr %10, align 4, !tbaa !9
  %33 = sext i32 %32 to i64
  %34 = getelementptr inbounds %union.StackValue, ptr %31, i64 %33
  store ptr %34, ptr %11, align 8, !tbaa !13
  call void @llvm.lifetime.start.p0(i64 8, ptr %12) #11
  %35 = load ptr, ptr %9, align 8, !tbaa !11
  %36 = load i32, ptr %10, align 4, !tbaa !9
  %37 = sext i32 %36 to i64
  %38 = getelementptr inbounds %union.StackValue, ptr %35, i64 %37
  store ptr %38, ptr %12, align 8, !tbaa !13
  %39 = load ptr, ptr %11, align 8, !tbaa !13
  %40 = getelementptr inbounds nuw %struct.TValue, ptr %39, i32 0, i32 0
  %41 = load ptr, ptr %12, align 8, !tbaa !13
  %42 = getelementptr inbounds nuw %struct.TValue, ptr %41, i32 0, i32 0
  call void @llvm.memcpy.p0.p0.i64(ptr align 8 %40, ptr align 8 %42, i64 8, i1 false), !tbaa.struct !39
  %43 = load ptr, ptr %12, align 8, !tbaa !13
  %44 = getelementptr inbounds nuw %struct.TValue, ptr %43, i32 0, i32 1
  %45 = load i8, ptr %44, align 8, !tbaa !38
  %46 = load ptr, ptr %11, align 8, !tbaa !13
  %47 = getelementptr inbounds nuw %struct.TValue, ptr %46, i32 0, i32 1
  store i8 %45, ptr %47, align 8, !tbaa !38
  call void @llvm.lifetime.end.p0(i64 8, ptr %12) #11
  call void @llvm.lifetime.end.p0(i64 8, ptr %11) #11
  br label %48

48:                                               ; preds = %30
  %49 = load i32, ptr %10, align 4, !tbaa !9
  %50 = add nsw i32 %49, 1
  store i32 %50, ptr %10, align 4, !tbaa !9
  br label %26

51:                                               ; preds = %26
  br label %52

52:                                               ; preds = %62, %51
  %53 = load i32, ptr %10, align 4, !tbaa !9
  %54 = load i32, ptr %8, align 4, !tbaa !9
  %55 = icmp slt i32 %53, %54
  br i1 %55, label %56, label %65

56:                                               ; preds = %52
  %57 = load ptr, ptr %6, align 8, !tbaa !11
  %58 = load i32, ptr %10, align 4, !tbaa !9
  %59 = sext i32 %58 to i64
  %60 = getelementptr inbounds %union.StackValue, ptr %57, i64 %59
  %61 = getelementptr inbounds nuw %struct.TValue, ptr %60, i32 0, i32 1
  store i8 0, ptr %61, align 8, !tbaa !34
  br label %62

62:                                               ; preds = %56
  %63 = load i32, ptr %10, align 4, !tbaa !9
  %64 = add nsw i32 %63, 1
  store i32 %64, ptr %10, align 4, !tbaa !9
  br label %52

65:                                               ; preds = %52
  %66 = load ptr, ptr %6, align 8, !tbaa !11
  %67 = load i32, ptr %8, align 4, !tbaa !9
  %68 = sext i32 %67 to i64
  %69 = getelementptr inbounds %union.StackValue, ptr %66, i64 %68
  %70 = load ptr, ptr %5, align 8, !tbaa !4
  %71 = getelementptr inbounds nuw %struct.lua_State, ptr %70, i32 0, i32 6
  store ptr %69, ptr %71, align 8, !tbaa !34
  call void @llvm.lifetime.end.p0(i64 4, ptr %10) #11
  call void @llvm.lifetime.end.p0(i64 8, ptr %9) #11
  ret void
}

; Function Attrs: inlinehint nounwind uwtable
define internal void @moveresults(ptr noundef %0, ptr noundef %1, i32 noundef %2, i32 noundef %3) #9 {
  %5 = alloca ptr, align 8
  %6 = alloca ptr, align 8
  %7 = alloca i32, align 4
  %8 = alloca i32, align 4
  %9 = alloca ptr, align 8
  %10 = alloca ptr, align 8
  %11 = alloca i32, align 4
  %12 = alloca i64, align 8
  store ptr %0, ptr %5, align 8, !tbaa !4
  store ptr %1, ptr %6, align 8, !tbaa !11
  store i32 %2, ptr %7, align 4, !tbaa !9
  store i32 %3, ptr %8, align 4, !tbaa !9
  %13 = load i32, ptr %8, align 4, !tbaa !9
  switch i32 %13, label %52 [
    i32 1, label %14
    i32 2, label %18
    i32 0, label %47
  ]

14:                                               ; preds = %4
  %15 = load ptr, ptr %6, align 8, !tbaa !11
  %16 = load ptr, ptr %5, align 8, !tbaa !4
  %17 = getelementptr inbounds nuw %struct.lua_State, ptr %16, i32 0, i32 6
  store ptr %15, ptr %17, align 8, !tbaa !34
  br label %113

18:                                               ; preds = %4
  %19 = load i32, ptr %7, align 4, !tbaa !9
  %20 = icmp eq i32 %19, 0
  br i1 %20, label %21, label %24

21:                                               ; preds = %18
  %22 = load ptr, ptr %6, align 8, !tbaa !11
  %23 = getelementptr inbounds nuw %struct.TValue, ptr %22, i32 0, i32 1
  store i8 0, ptr %23, align 8, !tbaa !34
  br label %42

24:                                               ; preds = %18
  call void @llvm.lifetime.start.p0(i64 8, ptr %9) #11
  %25 = load ptr, ptr %6, align 8, !tbaa !11
  store ptr %25, ptr %9, align 8, !tbaa !13
  call void @llvm.lifetime.start.p0(i64 8, ptr %10) #11
  %26 = load ptr, ptr %5, align 8, !tbaa !4
  %27 = getelementptr inbounds nuw %struct.lua_State, ptr %26, i32 0, i32 6
  %28 = load ptr, ptr %27, align 8, !tbaa !34
  %29 = load i32, ptr %7, align 4, !tbaa !9
  %30 = sext i32 %29 to i64
  %31 = sub i64 0, %30
  %32 = getelementptr inbounds %union.StackValue, ptr %28, i64 %31
  store ptr %32, ptr %10, align 8, !tbaa !13
  %33 = load ptr, ptr %9, align 8, !tbaa !13
  %34 = getelementptr inbounds nuw %struct.TValue, ptr %33, i32 0, i32 0
  %35 = load ptr, ptr %10, align 8, !tbaa !13
  %36 = getelementptr inbounds nuw %struct.TValue, ptr %35, i32 0, i32 0
  call void @llvm.memcpy.p0.p0.i64(ptr align 8 %34, ptr align 8 %36, i64 8, i1 false), !tbaa.struct !39
  %37 = load ptr, ptr %10, align 8, !tbaa !13
  %38 = getelementptr inbounds nuw %struct.TValue, ptr %37, i32 0, i32 1
  %39 = load i8, ptr %38, align 8, !tbaa !38
  %40 = load ptr, ptr %9, align 8, !tbaa !13
  %41 = getelementptr inbounds nuw %struct.TValue, ptr %40, i32 0, i32 1
  store i8 %39, ptr %41, align 8, !tbaa !38
  call void @llvm.lifetime.end.p0(i64 8, ptr %10) #11
  call void @llvm.lifetime.end.p0(i64 8, ptr %9) #11
  br label %42

42:                                               ; preds = %24, %21
  %43 = load ptr, ptr %6, align 8, !tbaa !11
  %44 = getelementptr inbounds %union.StackValue, ptr %43, i64 1
  %45 = load ptr, ptr %5, align 8, !tbaa !4
  %46 = getelementptr inbounds nuw %struct.lua_State, ptr %45, i32 0, i32 6
  store ptr %44, ptr %46, align 8, !tbaa !34
  br label %113

47:                                               ; preds = %4
  %48 = load ptr, ptr %5, align 8, !tbaa !4
  %49 = load ptr, ptr %6, align 8, !tbaa !11
  %50 = load i32, ptr %7, align 4, !tbaa !9
  %51 = load i32, ptr %7, align 4, !tbaa !9
  call void @genmoveresults(ptr noundef %48, ptr noundef %49, i32 noundef %50, i32 noundef %51)
  br label %113

52:                                               ; preds = %4
  call void @llvm.lifetime.start.p0(i64 4, ptr %11) #11
  %53 = load i32, ptr %8, align 4, !tbaa !9
  %54 = and i32 %53, 255
  %55 = sub nsw i32 %54, 1
  store i32 %55, ptr %11, align 4, !tbaa !9
  %56 = load i32, ptr %8, align 4, !tbaa !9
  %57 = and i32 %56, 262144
  %58 = icmp ne i32 %57, 0
  br i1 %58, label %59, label %108

59:                                               ; preds = %52
  %60 = load i32, ptr %7, align 4, !tbaa !9
  %61 = load ptr, ptr %5, align 8, !tbaa !4
  %62 = getelementptr inbounds nuw %struct.lua_State, ptr %61, i32 0, i32 8
  %63 = load ptr, ptr %62, align 8, !tbaa !53
  %64 = getelementptr inbounds nuw %struct.CallInfo, ptr %63, i32 0, i32 5
  store i32 %60, ptr %64, align 8, !tbaa !34
  %65 = load ptr, ptr %5, align 8, !tbaa !4
  %66 = getelementptr inbounds nuw %struct.lua_State, ptr %65, i32 0, i32 8
  %67 = load ptr, ptr %66, align 8, !tbaa !53
  %68 = getelementptr inbounds nuw %struct.CallInfo, ptr %67, i32 0, i32 6
  %69 = load i32, ptr %68, align 4, !tbaa !56
  %70 = or i32 %69, 131072
  store i32 %70, ptr %68, align 4, !tbaa !56
  %71 = load ptr, ptr %5, align 8, !tbaa !4
  %72 = load ptr, ptr %6, align 8, !tbaa !11
  %73 = call ptr @luaF_close(ptr noundef %71, ptr noundef %72, i32 noundef -1, i32 noundef 1)
  store ptr %73, ptr %6, align 8, !tbaa !11
  %74 = load ptr, ptr %5, align 8, !tbaa !4
  %75 = getelementptr inbounds nuw %struct.lua_State, ptr %74, i32 0, i32 8
  %76 = load ptr, ptr %75, align 8, !tbaa !53
  %77 = getelementptr inbounds nuw %struct.CallInfo, ptr %76, i32 0, i32 6
  %78 = load i32, ptr %77, align 4, !tbaa !56
  %79 = and i32 %78, -131073
  store i32 %79, ptr %77, align 4, !tbaa !56
  %80 = load ptr, ptr %5, align 8, !tbaa !4
  %81 = getelementptr inbounds nuw %struct.lua_State, ptr %80, i32 0, i32 23
  %82 = load volatile i32, ptr %81, align 8, !tbaa !67
  %83 = icmp ne i32 %82, 0
  br i1 %83, label %84, label %102

84:                                               ; preds = %59
  call void @llvm.lifetime.start.p0(i64 8, ptr %12) #11
  %85 = load ptr, ptr %6, align 8, !tbaa !11
  %86 = load ptr, ptr %5, align 8, !tbaa !4
  %87 = getelementptr inbounds nuw %struct.lua_State, ptr %86, i32 0, i32 10
  %88 = load ptr, ptr %87, align 8, !tbaa !34
  %89 = ptrtoint ptr %85 to i64
  %90 = ptrtoint ptr %88 to i64
  %91 = sub i64 %89, %90
  store i64 %91, ptr %12, align 8, !tbaa !59
  %92 = load ptr, ptr %5, align 8, !tbaa !4
  %93 = load ptr, ptr %5, align 8, !tbaa !4
  %94 = getelementptr inbounds nuw %struct.lua_State, ptr %93, i32 0, i32 8
  %95 = load ptr, ptr %94, align 8, !tbaa !53
  %96 = load i32, ptr %7, align 4, !tbaa !9
  call void @rethook(ptr noundef %92, ptr noundef %95, i32 noundef %96)
  %97 = load ptr, ptr %5, align 8, !tbaa !4
  %98 = getelementptr inbounds nuw %struct.lua_State, ptr %97, i32 0, i32 10
  %99 = load ptr, ptr %98, align 8, !tbaa !34
  %100 = load i64, ptr %12, align 8, !tbaa !59
  %101 = getelementptr inbounds i8, ptr %99, i64 %100
  store ptr %101, ptr %6, align 8, !tbaa !11
  call void @llvm.lifetime.end.p0(i64 8, ptr %12) #11
  br label %102

102:                                              ; preds = %84, %59
  %103 = load i32, ptr %11, align 4, !tbaa !9
  %104 = icmp eq i32 %103, -1
  br i1 %104, label %105, label %107

105:                                              ; preds = %102
  %106 = load i32, ptr %7, align 4, !tbaa !9
  store i32 %106, ptr %11, align 4, !tbaa !9
  br label %107

107:                                              ; preds = %105, %102
  br label %108

108:                                              ; preds = %107, %52
  %109 = load ptr, ptr %5, align 8, !tbaa !4
  %110 = load ptr, ptr %6, align 8, !tbaa !11
  %111 = load i32, ptr %7, align 4, !tbaa !9
  %112 = load i32, ptr %11, align 4, !tbaa !9
  call void @genmoveresults(ptr noundef %109, ptr noundef %110, i32 noundef %111, i32 noundef %112)
  call void @llvm.lifetime.end.p0(i64 4, ptr %11) #11
  br label %113

113:                                              ; preds = %14, %42, %108, %47
  ret void
}

; Function Attrs: nounwind uwtable
define hidden void @luaD_poscall(ptr noundef %0, ptr noundef %1, i32 noundef %2) #0 {
  %4 = alloca ptr, align 8
  %5 = alloca ptr, align 8
  %6 = alloca i32, align 4
  %7 = alloca i32, align 4
  store ptr %0, ptr %4, align 8, !tbaa !4
  store ptr %1, ptr %5, align 8, !tbaa !54
  store i32 %2, ptr %6, align 4, !tbaa !9
  call void @llvm.lifetime.start.p0(i64 4, ptr %7) #11
  %8 = load ptr, ptr %5, align 8, !tbaa !54
  %9 = getelementptr inbounds nuw %struct.CallInfo, ptr %8, i32 0, i32 6
  %10 = load i32, ptr %9, align 4, !tbaa !56
  %11 = and i32 %10, 262399
  store i32 %11, ptr %7, align 4, !tbaa !9
  %12 = load ptr, ptr %4, align 8, !tbaa !4
  %13 = getelementptr inbounds nuw %struct.lua_State, ptr %12, i32 0, i32 23
  %14 = load volatile i32, ptr %13, align 8, !tbaa !67
  %15 = icmp ne i32 %14, 0
  %16 = zext i1 %15 to i32
  %17 = sext i32 %16 to i64
  %18 = call i64 @llvm.expect.i64(i64 %17, i64 0)
  %19 = icmp ne i64 %18, 0
  br i1 %19, label %20, label %28

20:                                               ; preds = %3
  %21 = load i32, ptr %7, align 4, !tbaa !9
  %22 = and i32 %21, 262144
  %23 = icmp ne i32 %22, 0
  br i1 %23, label %28, label %24

24:                                               ; preds = %20
  %25 = load ptr, ptr %4, align 8, !tbaa !4
  %26 = load ptr, ptr %5, align 8, !tbaa !54
  %27 = load i32, ptr %6, align 4, !tbaa !9
  call void @rethook(ptr noundef %25, ptr noundef %26, i32 noundef %27)
  br label %28

28:                                               ; preds = %24, %20, %3
  %29 = load ptr, ptr %4, align 8, !tbaa !4
  %30 = load ptr, ptr %5, align 8, !tbaa !54
  %31 = getelementptr inbounds nuw %struct.CallInfo, ptr %30, i32 0, i32 0
  %32 = load ptr, ptr %31, align 8, !tbaa !34
  %33 = load i32, ptr %6, align 4, !tbaa !9
  %34 = load i32, ptr %7, align 4, !tbaa !9
  call void @moveresults(ptr noundef %29, ptr noundef %32, i32 noundef %33, i32 noundef %34)
  %35 = load ptr, ptr %5, align 8, !tbaa !54
  %36 = getelementptr inbounds nuw %struct.CallInfo, ptr %35, i32 0, i32 2
  %37 = load ptr, ptr %36, align 8, !tbaa !55
  %38 = load ptr, ptr %4, align 8, !tbaa !4
  %39 = getelementptr inbounds nuw %struct.lua_State, ptr %38, i32 0, i32 8
  store ptr %37, ptr %39, align 8, !tbaa !53
  call void @llvm.lifetime.end.p0(i64 4, ptr %7) #11
  ret void
}