; Function Attrs: nounwind uwtable
define hidden void @luaD_poscall(ptr noundef %0, ptr noundef captures(none) %1, i32 noundef %2) local_unnamed_addr #0 {
  %4 = getelementptr inbounds nuw i8, ptr %1, i64 60
  %5 = load i32, ptr %4, align 4, !tbaa !43
  %6 = getelementptr inbounds nuw i8, ptr %0, i64 192
  %7 = load volatile i32, ptr %6, align 8, !tbaa !54
  %.not = icmp eq i32 %7, 0
  br i1 %.not, label %11, label %8, !prof !66

8:                                                ; preds = %3
  %9 = and i32 %5, 262144
  %.not11 = icmp eq i32 %9, 0
  br i1 %.not11, label %10, label %11

10:                                               ; preds = %8
  tail call fastcc void @rethook(ptr noundef nonnull %0, ptr noundef nonnull %1, i32 noundef %2)
  br label %11

11:                                               ; preds = %10, %8, %3
  %12 = and i32 %5, 262399
  %13 = load ptr, ptr %1, align 8, !tbaa !27
  switch i32 %12, label %45 [
    i32 1, label %14
    i32 2, label %16
    i32 0, label %31
  ]

14:                                               ; preds = %11
  %15 = getelementptr inbounds nuw i8, ptr %0, i64 16
  store ptr %13, ptr %15, align 8, !tbaa !27
  br label %moveresults.exit

16:                                               ; preds = %11
  %17 = icmp eq i32 %2, 0
  br i1 %17, label %27, label %18

18:                                               ; preds = %16
  %19 = getelementptr inbounds nuw i8, ptr %0, i64 16
  %20 = load ptr, ptr %19, align 8, !tbaa !27
  %21 = sext i32 %2 to i64
  %22 = sub nsw i64 0, %21
  %23 = getelementptr inbounds %union.StackValue, ptr %20, i64 %22
  %24 = load i64, ptr %23, align 8, !tbaa !27
  store i64 %24, ptr %13, align 8, !tbaa !27
  %25 = getelementptr inbounds nuw i8, ptr %23, i64 8
  %26 = load i8, ptr %25, align 8, !tbaa !31
  br label %27

27:                                               ; preds = %18, %16
  %.sink.i = phi i8 [ %26, %18 ], [ 0, %16 ]
  %28 = getelementptr inbounds nuw i8, ptr %13, i64 8
  store i8 %.sink.i, ptr %28, align 8, !tbaa !27
  %29 = getelementptr inbounds nuw i8, ptr %13, i64 16
  %30 = getelementptr inbounds nuw i8, ptr %0, i64 16
  store ptr %29, ptr %30, align 8, !tbaa !27
  br label %moveresults.exit

31:                                               ; preds = %11
  %32 = getelementptr inbounds nuw i8, ptr %0, i64 16
  %33 = load ptr, ptr %32, align 8, !tbaa !27
  %34 = sext i32 %2 to i64
  %35 = sub nsw i64 0, %34
  %36 = getelementptr inbounds %union.StackValue, ptr %33, i64 %35
  %37 = icmp sgt i32 %2, 0
  br i1 %37, label %.lr.ph.preheader.i.i, label %genmoveresults.exit.i

.lr.ph.preheader.i.i:                             ; preds = %31
  %wide.trip.count.i.i = zext nneg i32 %2 to i64
  br label %.lr.ph.i.i

.lr.ph.i.i:                                       ; preds = %.lr.ph.i.i, %.lr.ph.preheader.i.i
  %indvars.iv.i.i = phi i64 [ 0, %.lr.ph.preheader.i.i ], [ %indvars.iv.next.i.i, %.lr.ph.i.i ]
  %38 = getelementptr inbounds nuw %union.StackValue, ptr %13, i64 %indvars.iv.i.i
  %39 = getelementptr inbounds nuw %union.StackValue, ptr %36, i64 %indvars.iv.i.i
  %40 = load i64, ptr %39, align 8, !tbaa !27
  store i64 %40, ptr %38, align 8, !tbaa !27
  %41 = getelementptr inbounds nuw i8, ptr %39, i64 8
  %42 = load i8, ptr %41, align 8, !tbaa !31
  %43 = getelementptr inbounds nuw i8, ptr %38, i64 8
  store i8 %42, ptr %43, align 8, !tbaa !31
  %indvars.iv.next.i.i = add nuw nsw i64 %indvars.iv.i.i, 1
  %exitcond.not.i.i = icmp eq i64 %indvars.iv.next.i.i, %wide.trip.count.i.i
  br i1 %exitcond.not.i.i, label %genmoveresults.exit.i, label %.lr.ph.i.i

genmoveresults.exit.i:                            ; preds = %.lr.ph.i.i, %31
  %44 = getelementptr inbounds %union.StackValue, ptr %13, i64 %34
  store ptr %44, ptr %32, align 8, !tbaa !27
  br label %moveresults.exit

45:                                               ; preds = %11
  %46 = and i32 %5, 255
  %47 = add nsw i32 %46, -1
  %.not.i = icmp samesign ult i32 %12, 262144
  br i1 %.not.i, label %72, label %48

48:                                               ; preds = %45
  %49 = getelementptr inbounds nuw i8, ptr %0, i64 32
  %50 = load ptr, ptr %49, align 8, !tbaa !46
  %51 = getelementptr inbounds nuw i8, ptr %50, i64 56
  store i32 %2, ptr %51, align 8, !tbaa !27
  %52 = load ptr, ptr %49, align 8, !tbaa !46
  %53 = getelementptr inbounds nuw i8, ptr %52, i64 60
  %54 = load i32, ptr %53, align 4, !tbaa !43
  %55 = or i32 %54, 131072
  store i32 %55, ptr %53, align 4, !tbaa !43
  %56 = tail call ptr @luaF_close(ptr noundef nonnull %0, ptr noundef %13, i32 noundef -1, i32 noundef 1) #13
  %57 = load ptr, ptr %49, align 8, !tbaa !46
  %58 = getelementptr inbounds nuw i8, ptr %57, i64 60
  %59 = load i32, ptr %58, align 4, !tbaa !43
  %60 = and i32 %59, -131073
  store i32 %60, ptr %58, align 4, !tbaa !43
  %61 = load volatile i32, ptr %6, align 8, !tbaa !54
  %.not42.i = icmp eq i32 %61, 0
  br i1 %.not42.i, label %70, label %62

62:                                               ; preds = %48
  %63 = getelementptr inbounds nuw i8, ptr %0, i64 48
  %64 = load ptr, ptr %63, align 8, !tbaa !27
  %65 = ptrtoint ptr %56 to i64
  %66 = ptrtoint ptr %64 to i64
  %67 = sub i64 %65, %66
  tail call fastcc void @rethook(ptr noundef nonnull %0, ptr noundef nonnull %57, i32 noundef %2)
  %68 = load ptr, ptr %63, align 8, !tbaa !27
  %69 = getelementptr inbounds i8, ptr %68, i64 %67
  br label %70

70:                                               ; preds = %62, %48
  %.1.i = phi ptr [ %69, %62 ], [ %56, %48 ]
  %71 = icmp eq i32 %46, 0
  %spec.select.i = select i1 %71, i32 %2, i32 %47
  br label %72

72:                                               ; preds = %70, %45
  %.039.i = phi i32 [ %47, %45 ], [ %spec.select.i, %70 ]
  %.0.i = phi ptr [ %13, %45 ], [ %.1.i, %70 ]
  %73 = getelementptr inbounds nuw i8, ptr %0, i64 16
  %74 = load ptr, ptr %73, align 8, !tbaa !27
  %75 = sext i32 %2 to i64
  %76 = sub nsw i64 0, %75
  %77 = getelementptr inbounds %union.StackValue, ptr %74, i64 %76
  %spec.select.i.i = tail call i32 @llvm.smin.i32(i32 %2, i32 %.039.i)
  %78 = icmp sgt i32 %spec.select.i.i, 0
  br i1 %78, label %.lr.ph.preheader.i51.i, label %.preheader.i43.i

.lr.ph.preheader.i51.i:                           ; preds = %72
  %wide.trip.count.i52.i = zext nneg i32 %spec.select.i.i to i64
  br label %.lr.ph.i53.i

.preheader.i43.i:                                 ; preds = %.lr.ph.i53.i, %72
  %.023.lcssa.i44.i = phi i32 [ 0, %72 ], [ %spec.select.i.i, %.lr.ph.i53.i ]
  %79 = icmp slt i32 %.023.lcssa.i44.i, %.039.i
  br i1 %79, label %.lr.ph29.preheader.i45.i, label %genmoveresults.exit57.i

.lr.ph29.preheader.i45.i:                         ; preds = %.preheader.i43.i
  %80 = zext nneg i32 %.023.lcssa.i44.i to i64
  %wide.trip.count34.i46.i = zext i32 %.039.i to i64
  br label %.lr.ph29.i47.i

.lr.ph.i53.i:                                     ; preds = %.lr.ph.i53.i, %.lr.ph.preheader.i51.i
  %indvars.iv.i54.i = phi i64 [ 0, %.lr.ph.preheader.i51.i ], [ %indvars.iv.next.i55.i, %.lr.ph.i53.i ]
  %81 = getelementptr inbounds nuw %union.StackValue, ptr %.0.i, i64 %indvars.iv.i54.i
  %82 = getelementptr inbounds nuw %union.StackValue, ptr %77, i64 %indvars.iv.i54.i
  %83 = load i64, ptr %82, align 8, !tbaa !27
  store i64 %83, ptr %81, align 8, !tbaa !27
  %84 = getelementptr inbounds nuw i8, ptr %82, i64 8
  %85 = load i8, ptr %84, align 8, !tbaa !31
  %86 = getelementptr inbounds nuw i8, ptr %81, i64 8
  store i8 %85, ptr %86, align 8, !tbaa !31
  %indvars.iv.next.i55.i = add nuw nsw i64 %indvars.iv.i54.i, 1
  %exitcond.not.i56.i = icmp eq i64 %indvars.iv.next.i55.i, %wide.trip.count.i52.i
  br i1 %exitcond.not.i56.i, label %.preheader.i43.i, label %.lr.ph.i53.i

.lr.ph29.i47.i:                                   ; preds = %.lr.ph29.i47.i, %.lr.ph29.preheader.i45.i
  %indvars.iv31.i48.i = phi i64 [ %80, %.lr.ph29.preheader.i45.i ], [ %indvars.iv.next32.i49.i, %.lr.ph29.i47.i ]
  %87 = getelementptr inbounds nuw %union.StackValue, ptr %.0.i, i64 %indvars.iv31.i48.i, i32 0, i32 1
  store i8 0, ptr %87, align 8, !tbaa !27
  %indvars.iv.next32.i49.i = add nuw nsw i64 %indvars.iv31.i48.i, 1
  %exitcond35.not.i50.i = icmp eq i64 %indvars.iv.next32.i49.i, %wide.trip.count34.i46.i
  br i1 %exitcond35.not.i50.i, label %genmoveresults.exit57.i, label %.lr.ph29.i47.i

genmoveresults.exit57.i:                          ; preds = %.lr.ph29.i47.i, %.preheader.i43.i
  %88 = sext i32 %.039.i to i64
  %89 = getelementptr inbounds %union.StackValue, ptr %.0.i, i64 %88
  store ptr %89, ptr %73, align 8, !tbaa !27
  br label %moveresults.exit

moveresults.exit:                                 ; preds = %14, %27, %genmoveresults.exit.i, %genmoveresults.exit57.i
  %90 = getelementptr inbounds nuw i8, ptr %1, i64 16
  %91 = load ptr, ptr %90, align 8, !tbaa !67
  %92 = getelementptr inbounds nuw i8, ptr %0, i64 32
  store ptr %91, ptr %92, align 8, !tbaa !46
  ret void
}